; Function Attrs: mustprogress nounwind uwtable
define dso_local noundef zeroext i1 @_Z31shouldTryInjectBasingOnMetadataPKN4llvm10BranchInstEPKNS_10BasicBlockE(ptr noundef %0, ptr noundef readnone %1) local_unnamed_addr #0 {
  %3 = alloca %"class.llvm::SmallVector.46", align 8
  %4 = alloca %"class.llvm::BranchProbability", align 4
  %5 = alloca %"class.llvm::BranchProbability", align 4
  %6 = getelementptr inbounds i8, ptr %3, i64 16
  call void @_ZN4llvm15SmallVectorBaseIjEC2EPvm(ptr noundef nonnull align 8 dereferenceable(16) %3, ptr noundef nonnull %6, i64 noundef 12) #19
  %7 = call noundef zeroext i1 @_ZN4llvm20extractBranchWeightsERKNS_11InstructionERNS_15SmallVectorImplIjEE(ptr noundef nonnull align 8 dereferenceable(72) %0, ptr noundef nonnull align 8 dereferenceable(16) %3) #19
  br i1 %7, label %8, label %26

8:                                                ; preds = %2
  %9 = load i32, ptr getelementptr inbounds (i8, ptr @_ZL39InjectInvariantConditionHotnesThreshold, i64 128), align 8
  %10 = add i32 %9, -1
  call void @_ZN4llvm17BranchProbabilityC1Ejj(ptr noundef nonnull align 4 dereferenceable(4) %4, i32 noundef %10, i32 noundef %9) #19
  %11 = getelementptr inbounds i8, ptr %0, i64 -32
  %12 = load ptr, ptr %11, align 8
  %13 = icmp ne ptr %12, %1
  %14 = zext i1 %13 to i64
  %15 = load ptr, ptr %3, align 8
  %16 = getelementptr inbounds i32, ptr %15, i64 %14
  %17 = load i32, ptr %16, align 4
  %18 = load i32, ptr %15, align 4
  %19 = getelementptr inbounds i8, ptr %15, i64 4
  %20 = load i32, ptr %19, align 4
  %21 = add i32 %20, %18
  %22 = icmp eq i32 %21, 0
  %23 = icmp ugt i32 %17, %21
  %or.cond = select i1 %22, i1 true, i1 %23
  br i1 %or.cond, label %26, label %24

24:                                               ; preds = %8
  call void @_ZN4llvm17BranchProbabilityC1Ejj(ptr noundef nonnull align 4 dereferenceable(4) %5, i32 noundef %17, i32 noundef %21) #19
  %.sroa.0.0.copyload = load i32, ptr %5, align 4
  %.sroa.0.0.copyload.i = load i32, ptr %4, align 4
  %25 = icmp uge i32 %.sroa.0.0.copyload, %.sroa.0.0.copyload.i
  br label %26

26:                                               ; preds = %24, %8, %2
  %.0 = phi i1 [ false, %2 ], [ false, %8 ], [ %25, %24 ]
  %27 = call noundef i64 @_ZNK4llvm15SmallVectorBaseIjE4sizeEv(ptr noundef nonnull align 8 dereferenceable(16) %3) #19
  %28 = load ptr, ptr %3, align 8
  %29 = icmp eq ptr %28, %6
  br i1 %29, label %_ZN4llvm11SmallVectorIjLj12EED2Ev.exit, label %30

30:                                               ; preds = %26
  call void @free(ptr noundef %28) #19
  br label %_ZN4llvm11SmallVectorIjLj12EED2Ev.exit

_ZN4llvm11SmallVectorIjLj12EED2Ev.exit:           ; preds = %26, %30
  ret i1 %.0
}